target datalayout = "e-m:e-p270:32:32-p271:32:32-p272:64:64-i64:64-i128:128-f80:128-n8:16:32:64-S128"
target triple = "x86_64-pc-linux-gnu"

%struct.stbi__write_context = type { ptr, ptr, [64 x i8], i32 }

@stbi__flip_vertically_on_write = global i32 0, align 4
@__const.stbi_write_hdr_core.header = private unnamed_addr constant [66 x i8] c"#?RADIANCE\0A# Written by stb_image_write.h\0AFORMAT=32-bit_rle_rgbe\0A\00", align 16
@.str.4 = private unnamed_addr constant [49 x i8] c"EXPOSURE=          1.0000000000000\0A\0A-Y %d +X %d\0A\00", align 1

; Function Attrs: nounwind uwtable
define i32 @stbi_write_hdr_core(ptr noundef %0, i32 noundef %1, i32 noundef %2, i32 noundef %3, ptr noundef %4) #0 {
  %6 = alloca i32, align 4
  %7 = alloca ptr, align 8
  %8 = alloca i32, align 4
  %9 = alloca i32, align 4
  %10 = alloca i32, align 4
  %11 = alloca ptr, align 8
  %12 = alloca ptr, align 8
  %13 = alloca i32, align 4
  %14 = alloca i32, align 4
  %15 = alloca [128 x i8], align 16
  %16 = alloca [66 x i8], align 16
  store ptr %0, ptr %7, align 8, !tbaa !7
  store i32 %1, ptr %8, align 4, !tbaa !3
  store i32 %2, ptr %9, align 4, !tbaa !3
  store i32 %3, ptr %10, align 4, !tbaa !3
  store ptr %4, ptr %11, align 8, !tbaa !30
  %17 = load i32, ptr %9, align 4, !tbaa !3
  %18 = icmp sle i32 %17, 0
  br i1 %18, label %25, label %19

19:                                               ; preds = %5
  %20 = load i32, ptr %8, align 4, !tbaa !3
  %21 = icmp sle i32 %20, 0
  br i1 %21, label %25, label %22

22:                                               ; preds = %19
  %23 = load ptr, ptr %11, align 8, !tbaa !30
  %24 = icmp eq ptr %23, null
  br i1 %24, label %25, label %26

25:                                               ; preds = %22, %19, %5
  store i32 0, ptr %6, align 4
  br label %82

26:                                               ; preds = %22
  call void @llvm.lifetime.start.p0(i64 8, ptr %12) #11
  %27 = load i32, ptr %8, align 4, !tbaa !3
  %28 = mul nsw i32 %27, 4
  %29 = sext i32 %28 to i64
  %30 = call noalias ptr @malloc(i64 noundef %29) #13
  store ptr %30, ptr %12, align 8, !tbaa !12
  call void @llvm.lifetime.start.p0(i64 4, ptr %13) #11
  call void @llvm.lifetime.start.p0(i64 4, ptr %14) #11
  call void @llvm.lifetime.start.p0(i64 128, ptr %15) #11
  call void @llvm.lifetime.start.p0(i64 66, ptr %16) #11
  call void @llvm.memcpy.p0.p0.i64(ptr align 16 %16, ptr align 16 @__const.stbi_write_hdr_core.header, i64 66, i1 false)
  %31 = load ptr, ptr %7, align 8, !tbaa !7
  %32 = getelementptr inbounds nuw %struct.stbi__write_context, ptr %31, i32 0, i32 0
  %33 = load ptr, ptr %32, align 8, !tbaa !9
  %34 = load ptr, ptr %7, align 8, !tbaa !7
  %35 = getelementptr inbounds nuw %struct.stbi__write_context, ptr %34, i32 0, i32 1
  %36 = load ptr, ptr %35, align 8, !tbaa !11
  %37 = getelementptr inbounds [66 x i8], ptr %16, i64 0, i64 0
  call void %33(ptr noundef %36, ptr noundef %37, i32 noundef 65)
  %38 = getelementptr inbounds [128 x i8], ptr %15, i64 0, i64 0
  %39 = load i32, ptr %9, align 4, !tbaa !3
  %40 = load i32, ptr %8, align 4, !tbaa !3
  %41 = call i32 (ptr, ptr, ...) @sprintf(ptr noundef %38, ptr noundef @.str.4, i32 noundef %39, i32 noundef %40) #11
  store i32 %41, ptr %14, align 4, !tbaa !3
  %42 = load ptr, ptr %7, align 8, !tbaa !7
  %43 = getelementptr inbounds nuw %struct.stbi__write_context, ptr %42, i32 0, i32 0
  %44 = load ptr, ptr %43, align 8, !tbaa !9
  %45 = load ptr, ptr %7, align 8, !tbaa !7
  %46 = getelementptr inbounds nuw %struct.stbi__write_context, ptr %45, i32 0, i32 1
  %47 = load ptr, ptr %46, align 8, !tbaa !11
  %48 = getelementptr inbounds [128 x i8], ptr %15, i64 0, i64 0
  %49 = load i32, ptr %14, align 4, !tbaa !3
  call void %44(ptr noundef %47, ptr noundef %48, i32 noundef %49)
  store i32 0, ptr %13, align 4, !tbaa !3
  br label %50

50:                                               ; preds = %77, %26
  %51 = load i32, ptr %13, align 4, !tbaa !3
  %52 = load i32, ptr %9, align 4, !tbaa !3
  %53 = icmp slt i32 %51, %52
  br i1 %53, label %54, label %80

54:                                               ; preds = %50
  %55 = load ptr, ptr %7, align 8, !tbaa !7
  %56 = load i32, ptr %8, align 4, !tbaa !3
  %57 = load i32, ptr %10, align 4, !tbaa !3
  %58 = load ptr, ptr %12, align 8, !tbaa !12
  %59 = load ptr, ptr %11, align 8, !tbaa !30
  %60 = load i32, ptr %10, align 4, !tbaa !3
  %61 = load i32, ptr %8, align 4, !tbaa !3
  %62 = mul nsw i32 %60, %61
  %63 = load i32, ptr @stbi__flip_vertically_on_write, align 4, !tbaa !3
  %64 = icmp ne i32 %63, 0
  br i1 %64, label %65, label %70

65:                                               ; preds = %54
  %66 = load i32, ptr %9, align 4, !tbaa !3
  %67 = sub nsw i32 %66, 1
  %68 = load i32, ptr %13, align 4, !tbaa !3
  %69 = sub nsw i32 %67, %68
  br label %72

70:                                               ; preds = %54
  %71 = load i32, ptr %13, align 4, !tbaa !3
  br label %72

72:                                               ; preds = %70, %65
  %73 = phi i32 [ %69, %65 ], [ %71, %70 ]
  %74 = mul nsw i32 %62, %73
  %75 = sext i32 %74 to i64
  %76 = getelementptr inbounds float, ptr %59, i64 %75
  call void @stbiw__write_hdr_scanline(ptr noundef %55, i32 noundef %56, i32 noundef %57, ptr noundef %58, ptr noundef %76)
  br label %77

77:                                               ; preds = %72
  %78 = load i32, ptr %13, align 4, !tbaa !3
  %79 = add nsw i32 %78, 1
  store i32 %79, ptr %13, align 4, !tbaa !3
  br label %50, !llvm.loop !42

80:                                               ; preds = %50
  %81 = load ptr, ptr %12, align 8, !tbaa !12
  call void @free(ptr noundef %81) #11
  store i32 1, ptr %6, align 4
  call void @llvm.lifetime.end.p0(i64 66, ptr %16) #11
  call void @llvm.lifetime.end.p0(i64 128, ptr %15) #11
  call void @llvm.lifetime.end.p0(i64 4, ptr %14) #11
  call void @llvm.lifetime.end.p0(i64 4, ptr %13) #11
  call void @llvm.lifetime.end.p0(i64 8, ptr %12) #11
  br label %82

82:                                               ; preds = %80, %25
  %83 = load i32, ptr %6, align 4
  ret i32 %83
}