; Function Attrs: nounwind uwtable
define range(i32 0, 2) i32 @stbi_write_hdr_core(ptr noundef readonly captures(none) %0, i32 noundef %1, i32 noundef %2, i32 noundef %3, ptr noundef readonly captures(address_is_null) %4) local_unnamed_addr #5 {
  %6 = alloca [128 x i8], align 16
  %7 = alloca [66 x i8], align 16
  %8 = icmp slt i32 %2, 1
  %9 = icmp slt i32 %1, 1
  %or.cond = or i1 %9, %8
  %10 = icmp eq ptr %4, null
  %or.cond3 = or i1 %or.cond, %10
  br i1 %or.cond3, label %32, label %11

11:                                               ; preds = %5
  %12 = shl nsw i32 %1, 2
  %13 = zext nneg i32 %12 to i64
  %14 = tail call noalias ptr @malloc(i64 noundef %13) #27
  call void @llvm.lifetime.start.p0(i64 128, ptr nonnull %6) #26
  call void @llvm.lifetime.start.p0(i64 66, ptr nonnull %7) #26
  call void @llvm.memcpy.p0.p0.i64(ptr noundef nonnull align 16 dereferenceable(66) %7, ptr noundef nonnull align 16 dereferenceable(66) @__const.stbi_write_hdr_core.header, i64 66, i1 false)
  %15 = load ptr, ptr %0, align 8, !tbaa !7
  %16 = getelementptr inbounds nuw i8, ptr %0, i64 8
  %17 = load ptr, ptr %16, align 8, !tbaa !10
  call void %15(ptr noundef %17, ptr noundef nonnull %7, i32 noundef 65) #26
  %18 = call i32 (ptr, ptr, ...) @sprintf(ptr noundef nonnull dereferenceable(1) %6, ptr noundef nonnull dereferenceable(1) @.str.4, i32 noundef %2, i32 noundef %1) #26
  %19 = load ptr, ptr %0, align 8, !tbaa !7
  %20 = load ptr, ptr %16, align 8, !tbaa !10
  call void %19(ptr noundef %20, ptr noundef nonnull %6, i32 noundef %18) #26
  %21 = mul nsw i32 %3, %1
  br label %22

22:                                               ; preds = %11, %22
  %.02832 = phi i32 [ 0, %11 ], [ %30, %22 ]
  %23 = load i32, ptr @stbi__flip_vertically_on_write, align 4, !tbaa !3
  %.not = icmp eq i32 %23, 0
  %24 = xor i32 %.02832, -1
  %25 = add nsw i32 %2, %24
  %26 = select i1 %.not, i32 %.02832, i32 %25
  %27 = mul nsw i32 %21, %26
  %28 = sext i32 %27 to i64
  %29 = getelementptr inbounds float, ptr %4, i64 %28
  call void @stbiw__write_hdr_scanline(ptr noundef nonnull %0, i32 noundef %1, i32 noundef %3, ptr noundef %14, ptr noundef %29)
  %30 = add nuw nsw i32 %.02832, 1
  %exitcond.not = icmp eq i32 %30, %2
  br i1 %exitcond.not, label %31, label %22, !llvm.loop !33

31:                                               ; preds = %22
  call void @free(ptr noundef %14) #26
  call void @llvm.lifetime.end.p0(i64 66, ptr nonnull %7) #26
  call void @llvm.lifetime.end.p0(i64 128, ptr nonnull %6) #26
  br label %32

32:                                               ; preds = %5, %31
  %.0 = phi i32 [ 1, %31 ], [ 0, %5 ]
  ret i32 %.0
}